target datalayout = "e-m:e-p270:32:32-p271:32:32-p272:64:64-i64:64-i128:128-f80:128-n8:16:32:64-S128"
target triple = "x86_64-pc-linux-gnu"

%struct.jpeg_decompress_struct = type { ptr, ptr, ptr, ptr, i32, i32, ptr, i32, i32, i32, i32, i32, i32, i32, double, i32, i32, i32, i32, i32, i32, i32, i32, i32, i32, i32, i32, i32, i32, i32, i32, i32, i32, ptr, i32, i32, i32, i32, i32, ptr, [4 x ptr], [4 x ptr], [4 x ptr], i32, ptr, i32, i32, [16 x i8], [16 x i8], [16 x i8], i32, i32, i8, i8, i8, i16, i16, i32, i8, i32, ptr, i32, i32, i32, i32, ptr, i32, [4 x ptr], i32, i32, i32, [10 x i32], i32, i32, i32, i32, i32, ptr, ptr, ptr, ptr, ptr, ptr, ptr, ptr, ptr, ptr, ptr }
%struct.jpeg_memory_mgr = type { ptr, ptr, ptr, ptr, ptr, ptr, ptr, ptr, ptr, ptr, ptr, i64, i64 }
%struct.my_main_controller = type { %struct.jpeg_d_main_controller, [10 x ptr], i32, i32, [2 x ptr], i32, i32, i32, i32 }
%struct.jpeg_d_main_controller = type { ptr, ptr }
%struct.jpeg_error_mgr = type { ptr, ptr, ptr, ptr, ptr, i32, %union.anon, i32, i64, ptr, i32, ptr, i32, i32 }
%union.anon = type { [8 x i32], [48 x i8] }
%struct.jpeg_upsampler = type { ptr, ptr, i32 }
%struct.jpeg_component_info = type { i32, i32, i32, i32, i32, i32, i32, i32, i32, i32, i32, i32, i32, i32, i32, i32, i32, i32, i32, ptr, ptr }

; Function Attrs: nounwind uwtable
define internal void @alloc_funny_pointers(ptr noundef %0) #0 {
  %2 = alloca ptr, align 8
  %3 = alloca ptr, align 8
  %4 = alloca i32, align 4
  %5 = alloca i32, align 4
  %6 = alloca i32, align 4
  %7 = alloca ptr, align 8
  %8 = alloca ptr, align 8
  store ptr %0, ptr %2, align 8
  %9 = load ptr, ptr %2, align 8
  %10 = getelementptr inbounds %struct.jpeg_decompress_struct, ptr %9, i32 0, i32 78
  %11 = load ptr, ptr %10, align 8
  store ptr %11, ptr %3, align 8
  %12 = load ptr, ptr %2, align 8
  %13 = getelementptr inbounds %struct.jpeg_decompress_struct, ptr %12, i32 0, i32 63
  %14 = load i32, ptr %13, align 8
  store i32 %14, ptr %6, align 4
  %15 = load ptr, ptr %2, align 8
  %16 = getelementptr inbounds %struct.jpeg_decompress_struct, ptr %15, i32 0, i32 1
  %17 = load ptr, ptr %16, align 8
  %18 = getelementptr inbounds %struct.jpeg_memory_mgr, ptr %17, i32 0, i32 0
  %19 = load ptr, ptr %18, align 8
  %20 = load ptr, ptr %2, align 8
  %21 = load ptr, ptr %2, align 8
  %22 = getelementptr inbounds %struct.jpeg_decompress_struct, ptr %21, i32 0, i32 9
  %23 = load i32, ptr %22, align 8
  %24 = mul nsw i32 %23, 2
  %25 = sext i32 %24 to i64
  %26 = mul i64 %25, 8
  %27 = call ptr %19(ptr noundef %20, i32 noundef 1, i64 noundef %26)
  %28 = load ptr, ptr %3, align 8
  %29 = getelementptr inbounds %struct.my_main_controller, ptr %28, i32 0, i32 4
  %30 = getelementptr inbounds [2 x ptr], ptr %29, i64 0, i64 0
  store ptr %27, ptr %30, align 8
  %31 = load ptr, ptr %3, align 8
  %32 = getelementptr inbounds %struct.my_main_controller, ptr %31, i32 0, i32 4
  %33 = getelementptr inbounds [2 x ptr], ptr %32, i64 0, i64 0
  %34 = load ptr, ptr %33, align 8
  %35 = load ptr, ptr %2, align 8
  %36 = getelementptr inbounds %struct.jpeg_decompress_struct, ptr %35, i32 0, i32 9
  %37 = load i32, ptr %36, align 8
  %38 = sext i32 %37 to i64
  %39 = getelementptr inbounds ptr, ptr %34, i64 %38
  %40 = load ptr, ptr %3, align 8
  %41 = getelementptr inbounds %struct.my_main_controller, ptr %40, i32 0, i32 4
  %42 = getelementptr inbounds [2 x ptr], ptr %41, i64 0, i64 1
  store ptr %39, ptr %42, align 8
  store i32 0, ptr %4, align 4
  %43 = load ptr, ptr %2, align 8
  %44 = getelementptr inbounds %struct.jpeg_decompress_struct, ptr %43, i32 0, i32 44
  %45 = load ptr, ptr %44, align 8
  store ptr %45, ptr %7, align 8
  br label %46

46:                                               ; preds = %105, %1
  %47 = load i32, ptr %4, align 4
  %48 = load ptr, ptr %2, align 8
  %49 = getelementptr inbounds %struct.jpeg_decompress_struct, ptr %48, i32 0, i32 9
  %50 = load i32, ptr %49, align 8
  %51 = icmp slt i32 %47, %50
  br i1 %51, label %52, label %110

52:                                               ; preds = %46
  %53 = load ptr, ptr %7, align 8
  %54 = getelementptr inbounds %struct.jpeg_component_info, ptr %53, i32 0, i32 3
  %55 = load i32, ptr %54, align 4
  %56 = load ptr, ptr %7, align 8
  %57 = getelementptr inbounds %struct.jpeg_component_info, ptr %56, i32 0, i32 9
  %58 = load i32, ptr %57, align 4
  %59 = mul nsw i32 %55, %58
  %60 = load ptr, ptr %2, align 8
  %61 = getelementptr inbounds %struct.jpeg_decompress_struct, ptr %60, i32 0, i32 63
  %62 = load i32, ptr %61, align 8
  %63 = sdiv i32 %59, %62
  store i32 %63, ptr %5, align 4
  %64 = load ptr, ptr %2, align 8
  %65 = getelementptr inbounds %struct.jpeg_decompress_struct, ptr %64, i32 0, i32 1
  %66 = load ptr, ptr %65, align 8
  %67 = getelementptr inbounds %struct.jpeg_memory_mgr, ptr %66, i32 0, i32 0
  %68 = load ptr, ptr %67, align 8
  %69 = load ptr, ptr %2, align 8
  %70 = load i32, ptr %5, align 4
  %71 = load i32, ptr %6, align 4
  %72 = add nsw i32 %71, 4
  %73 = mul nsw i32 %70, %72
  %74 = mul nsw i32 2, %73
  %75 = sext i32 %74 to i64
  %76 = mul i64 %75, 8
  %77 = call ptr %68(ptr noundef %69, i32 noundef 1, i64 noundef %76)
  store ptr %77, ptr %8, align 8
  %78 = load i32, ptr %5, align 4
  %79 = load ptr, ptr %8, align 8
  %80 = sext i32 %78 to i64
  %81 = getelementptr inbounds ptr, ptr %79, i64 %80
  store ptr %81, ptr %8, align 8
  %82 = load ptr, ptr %8, align 8
  %83 = load ptr, ptr %3, align 8
  %84 = getelementptr inbounds %struct.my_main_controller, ptr %83, i32 0, i32 4
  %85 = getelementptr inbounds [2 x ptr], ptr %84, i64 0, i64 0
  %86 = load ptr, ptr %85, align 8
  %87 = load i32, ptr %4, align 4
  %88 = sext i32 %87 to i64
  %89 = getelementptr inbounds ptr, ptr %86, i64 %88
  store ptr %82, ptr %89, align 8
  %90 = load i32, ptr %5, align 4
  %91 = load i32, ptr %6, align 4
  %92 = add nsw i32 %91, 4
  %93 = mul nsw i32 %90, %92
  %94 = load ptr, ptr %8, align 8
  %95 = sext i32 %93 to i64
  %96 = getelementptr inbounds ptr, ptr %94, i64 %95
  store ptr %96, ptr %8, align 8
  %97 = load ptr, ptr %8, align 8
  %98 = load ptr, ptr %3, align 8
  %99 = getelementptr inbounds %struct.my_main_controller, ptr %98, i32 0, i32 4
  %100 = getelementptr inbounds [2 x ptr], ptr %99, i64 0, i64 1
  %101 = load ptr, ptr %100, align 8
  %102 = load i32, ptr %4, align 4
  %103 = sext i32 %102 to i64
  %104 = getelementptr inbounds ptr, ptr %101, i64 %103
  store ptr %97, ptr %104, align 8
  br label %105

105:                                              ; preds = %52
  %106 = load i32, ptr %4, align 4
  %107 = add nsw i32 %106, 1
  store i32 %107, ptr %4, align 4
  %108 = load ptr, ptr %7, align 8
  %109 = getelementptr inbounds %struct.jpeg_component_info, ptr %108, i32 1
  store ptr %109, ptr %7, align 8
  br label %46, !llvm.loop !8

110:                                              ; preds = %46
  ret void
}

; Function Attrs: nounwind uwtable
define hidden void @jIDMainC(ptr noundef %0, i32 noundef %1) #0 {
  %3 = alloca ptr, align 8
  %4 = alloca i32, align 4
  %5 = alloca ptr, align 8
  %6 = alloca i32, align 4
  %7 = alloca i32, align 4
  %8 = alloca i32, align 4
  %9 = alloca ptr, align 8
  store ptr %0, ptr %3, align 8
  store i32 %1, ptr %4, align 4
  %10 = load ptr, ptr %3, align 8
  %11 = getelementptr inbounds %struct.jpeg_decompress_struct, ptr %10, i32 0, i32 1
  %12 = load ptr, ptr %11, align 8
  %13 = getelementptr inbounds %struct.jpeg_memory_mgr, ptr %12, i32 0, i32 0
  %14 = load ptr, ptr %13, align 8
  %15 = load ptr, ptr %3, align 8
  %16 = call ptr %14(ptr noundef %15, i32 noundef 1, i64 noundef 136)
  store ptr %16, ptr %5, align 8
  %17 = load ptr, ptr %5, align 8
  %18 = load ptr, ptr %3, align 8
  %19 = getelementptr inbounds %struct.jpeg_decompress_struct, ptr %18, i32 0, i32 78
  store ptr %17, ptr %19, align 8
  %20 = load ptr, ptr %5, align 8
  %21 = getelementptr inbounds %struct.my_main_controller, ptr %20, i32 0, i32 0
  %22 = getelementptr inbounds %struct.jpeg_d_main_controller, ptr %21, i32 0, i32 0
  store ptr @start_pass_main, ptr %22, align 8
  %23 = load i32, ptr %4, align 4
  %24 = icmp ne i32 %23, 0
  br i1 %24, label %25, label %36

25:                                               ; preds = %2
  %26 = load ptr, ptr %3, align 8
  %27 = getelementptr inbounds %struct.jpeg_decompress_struct, ptr %26, i32 0, i32 0
  %28 = load ptr, ptr %27, align 8
  %29 = getelementptr inbounds %struct.jpeg_error_mgr, ptr %28, i32 0, i32 5
  store i32 4, ptr %29, align 8
  %30 = load ptr, ptr %3, align 8
  %31 = getelementptr inbounds %struct.jpeg_decompress_struct, ptr %30, i32 0, i32 0
  %32 = load ptr, ptr %31, align 8
  %33 = getelementptr inbounds %struct.jpeg_error_mgr, ptr %32, i32 0, i32 0
  %34 = load ptr, ptr %33, align 8
  %35 = load ptr, ptr %3, align 8
  call void %34(ptr noundef %35)
  br label %36

36:                                               ; preds = %25, %2
  %37 = load ptr, ptr %3, align 8
  %38 = getelementptr inbounds %struct.jpeg_decompress_struct, ptr %37, i32 0, i32 85
  %39 = load ptr, ptr %38, align 8
  %40 = getelementptr inbounds %struct.jpeg_upsampler, ptr %39, i32 0, i32 2
  %41 = load i32, ptr %40, align 8
  %42 = icmp ne i32 %41, 0
  br i1 %42, label %43, label %65

43:                                               ; preds = %36
  %44 = load ptr, ptr %3, align 8
  %45 = getelementptr inbounds %struct.jpeg_decompress_struct, ptr %44, i32 0, i32 63
  %46 = load i32, ptr %45, align 8
  %47 = icmp slt i32 %46, 2
  br i1 %47, label %48, label %59

48:                                               ; preds = %43
  %49 = load ptr, ptr %3, align 8
  %50 = getelementptr inbounds %struct.jpeg_decompress_struct, ptr %49, i32 0, i32 0
  %51 = load ptr, ptr %50, align 8
  %52 = getelementptr inbounds %struct.jpeg_error_mgr, ptr %51, i32 0, i32 5
  store i32 47, ptr %52, align 8
  %53 = load ptr, ptr %3, align 8
  %54 = getelementptr inbounds %struct.jpeg_decompress_struct, ptr %53, i32 0, i32 0
  %55 = load ptr, ptr %54, align 8
  %56 = getelementptr inbounds %struct.jpeg_error_mgr, ptr %55, i32 0, i32 0
  %57 = load ptr, ptr %56, align 8
  %58 = load ptr, ptr %3, align 8
  call void %57(ptr noundef %58)
  br label %59

59:                                               ; preds = %48, %43
  %60 = load ptr, ptr %3, align 8
  call void @alloc_funny_pointers(ptr noundef %60)
  %61 = load ptr, ptr %3, align 8
  %62 = getelementptr inbounds %struct.jpeg_decompress_struct, ptr %61, i32 0, i32 63
  %63 = load i32, ptr %62, align 8
  %64 = add nsw i32 %63, 2
  store i32 %64, ptr %8, align 4
  br label %69

65:                                               ; preds = %36
  %66 = load ptr, ptr %3, align 8
  %67 = getelementptr inbounds %struct.jpeg_decompress_struct, ptr %66, i32 0, i32 63
  %68 = load i32, ptr %67, align 8
  store i32 %68, ptr %8, align 4
  br label %69

69:                                               ; preds = %65, %59
  store i32 0, ptr %6, align 4
  %70 = load ptr, ptr %3, align 8
  %71 = getelementptr inbounds %struct.jpeg_decompress_struct, ptr %70, i32 0, i32 44
  %72 = load ptr, ptr %71, align 8
  store ptr %72, ptr %9, align 8
  br label %73

73:                                               ; preds = %113, %69
  %74 = load i32, ptr %6, align 4
  %75 = load ptr, ptr %3, align 8
  %76 = getelementptr inbounds %struct.jpeg_decompress_struct, ptr %75, i32 0, i32 9
  %77 = load i32, ptr %76, align 8
  %78 = icmp slt i32 %74, %77
  br i1 %78, label %79, label %118

79:                                               ; preds = %73
  %80 = load ptr, ptr %9, align 8
  %81 = getelementptr inbounds %struct.jpeg_component_info, ptr %80, i32 0, i32 3
  %82 = load i32, ptr %81, align 4
  %83 = load ptr, ptr %9, align 8
  %84 = getelementptr inbounds %struct.jpeg_component_info, ptr %83, i32 0, i32 9
  %85 = load i32, ptr %84, align 4
  %86 = mul nsw i32 %82, %85
  %87 = load ptr, ptr %3, align 8
  %88 = getelementptr inbounds %struct.jpeg_decompress_struct, ptr %87, i32 0, i32 63
  %89 = load i32, ptr %88, align 8
  %90 = sdiv i32 %86, %89
  store i32 %90, ptr %7, align 4
  %91 = load ptr, ptr %3, align 8
  %92 = getelementptr inbounds %struct.jpeg_decompress_struct, ptr %91, i32 0, i32 1
  %93 = load ptr, ptr %92, align 8
  %94 = getelementptr inbounds %struct.jpeg_memory_mgr, ptr %93, i32 0, i32 2
  %95 = load ptr, ptr %94, align 8
  %96 = load ptr, ptr %3, align 8
  %97 = load ptr, ptr %9, align 8
  %98 = getelementptr inbounds %struct.jpeg_component_info, ptr %97, i32 0, i32 7
  %99 = load i32, ptr %98, align 4
  %100 = load ptr, ptr %9, align 8
  %101 = getelementptr inbounds %struct.jpeg_component_info, ptr %100, i32 0, i32 9
  %102 = load i32, ptr %101, align 4
  %103 = mul i32 %99, %102
  %104 = load i32, ptr %7, align 4
  %105 = load i32, ptr %8, align 4
  %106 = mul nsw i32 %104, %105
  %107 = call ptr %95(ptr noundef %96, i32 noundef 1, i32 noundef %103, i32 noundef %106)
  %108 = load ptr, ptr %5, align 8
  %109 = getelementptr inbounds %struct.my_main_controller, ptr %108, i32 0, i32 1
  %110 = load i32, ptr %6, align 4
  %111 = sext i32 %110 to i64
  %112 = getelementptr inbounds [10 x ptr], ptr %109, i64 0, i64 %111
  store ptr %107, ptr %112, align 8
  br label %113

113:                                              ; preds = %79
  %114 = load i32, ptr %6, align 4
  %115 = add nsw i32 %114, 1
  store i32 %115, ptr %6, align 4
  %116 = load ptr, ptr %9, align 8
  %117 = getelementptr inbounds %struct.jpeg_component_info, ptr %116, i32 1
  store ptr %117, ptr %9, align 8
  br label %73, !llvm.loop !6

118:                                              ; preds = %73
  ret void
}