; Function Attrs: nounwind uwtable
define hidden void @jIDMainC(ptr noundef %0, i32 noundef %1) local_unnamed_addr #0 {
  %3 = getelementptr inbounds i8, ptr %0, i64 8
  %4 = load ptr, ptr %3, align 8
  %5 = load ptr, ptr %4, align 8
  %6 = tail call ptr %5(ptr noundef %0, i32 noundef 1, i64 noundef 136) #2
  %7 = getelementptr inbounds i8, ptr %0, i64 552
  store ptr %6, ptr %7, align 8
  store ptr @start_pass_main, ptr %6, align 8
  %.not = icmp eq i32 %1, 0
  br i1 %.not, label %13, label %8

8:                                                ; preds = %2
  %9 = load ptr, ptr %0, align 8
  %10 = getelementptr inbounds i8, ptr %9, i64 40
  store i32 4, ptr %10, align 8
  %11 = load ptr, ptr %0, align 8
  %12 = load ptr, ptr %11, align 8
  tail call void %12(ptr noundef nonnull %0) #2
  br label %13

13:                                               ; preds = %8, %2
  %14 = getelementptr inbounds i8, ptr %0, i64 608
  %15 = load ptr, ptr %14, align 8
  %16 = getelementptr inbounds i8, ptr %15, i64 16
  %17 = load i32, ptr %16, align 8
  %.not34 = icmp eq i32 %17, 0
  %18 = getelementptr inbounds i8, ptr %0, i64 416
  %19 = load i32, ptr %18, align 8
  br i1 %.not34, label %78, label %20

20:                                               ; preds = %13
  %21 = icmp slt i32 %19, 2
  br i1 %21, label %22, label %27

22:                                               ; preds = %20
  %23 = load ptr, ptr %0, align 8
  %24 = getelementptr inbounds i8, ptr %23, i64 40
  store i32 47, ptr %24, align 8
  %25 = load ptr, ptr %0, align 8
  %26 = load ptr, ptr %25, align 8
  tail call void %26(ptr noundef nonnull %0) #2
  %.pre = load i32, ptr %18, align 8
  br label %27

27:                                               ; preds = %22, %20
  %28 = phi i32 [ %.pre, %22 ], [ %19, %20 ]
  %29 = load ptr, ptr %7, align 8
  %30 = load ptr, ptr %3, align 8
  %31 = load ptr, ptr %30, align 8
  %32 = getelementptr inbounds i8, ptr %0, i64 56
  %33 = load i32, ptr %32, align 8
  %34 = shl nsw i32 %33, 1
  %35 = sext i32 %34 to i64
  %36 = shl nsw i64 %35, 3
  %37 = tail call ptr %31(ptr noundef nonnull %0, i32 noundef 1, i64 noundef %36) #2
  %38 = getelementptr inbounds i8, ptr %29, i64 104
  store ptr %37, ptr %38, align 8
  %39 = load i32, ptr %32, align 8
  %40 = sext i32 %39 to i64
  %41 = getelementptr inbounds ptr, ptr %37, i64 %40
  %42 = getelementptr inbounds i8, ptr %29, i64 112
  store ptr %41, ptr %42, align 8
  %43 = load i32, ptr %32, align 8
  %44 = icmp sgt i32 %43, 0
  br i1 %44, label %.lr.ph.i, label %alloc_funny_pointers.exit

.lr.ph.i:                                         ; preds = %27
  %45 = getelementptr inbounds i8, ptr %0, i64 304
  %46 = load ptr, ptr %45, align 8
  %47 = add nsw i32 %28, 4
  br label %48

48:                                               ; preds = %48, %.lr.ph.i
  %indvars.iv.i = phi i64 [ 0, %.lr.ph.i ], [ %indvars.iv.next.i, %48 ]
  %.03132.i = phi ptr [ %46, %.lr.ph.i ], [ %71, %48 ]
  %49 = getelementptr inbounds i8, ptr %.03132.i, i64 12
  %50 = load i32, ptr %49, align 4
  %51 = getelementptr inbounds i8, ptr %.03132.i, i64 36
  %52 = load i32, ptr %51, align 4
  %53 = mul nsw i32 %52, %50
  %54 = load i32, ptr %18, align 8
  %55 = sdiv i32 %53, %54
  %56 = load ptr, ptr %3, align 8
  %57 = load ptr, ptr %56, align 8
  %58 = mul nsw i32 %55, %47
  %59 = shl nsw i32 %58, 1
  %60 = sext i32 %59 to i64
  %61 = shl nsw i64 %60, 3
  %62 = tail call ptr %57(ptr noundef nonnull %0, i32 noundef 1, i64 noundef %61) #2
  %63 = sext i32 %55 to i64
  %64 = getelementptr inbounds ptr, ptr %62, i64 %63
  %65 = load ptr, ptr %38, align 8
  %66 = getelementptr inbounds ptr, ptr %65, i64 %indvars.iv.i
  store ptr %64, ptr %66, align 8
  %67 = sext i32 %58 to i64
  %68 = getelementptr inbounds ptr, ptr %64, i64 %67
  %69 = load ptr, ptr %42, align 8
  %70 = getelementptr inbounds ptr, ptr %69, i64 %indvars.iv.i
  store ptr %68, ptr %70, align 8
  %indvars.iv.next.i = add nuw nsw i64 %indvars.iv.i, 1
  %71 = getelementptr inbounds i8, ptr %.03132.i, i64 96
  %72 = load i32, ptr %32, align 8
  %73 = sext i32 %72 to i64
  %74 = icmp slt i64 %indvars.iv.next.i, %73
  br i1 %74, label %48, label %alloc_funny_pointers.exit, !llvm.loop !6

alloc_funny_pointers.exit:                        ; preds = %48, %27
  %75 = phi i32 [ %43, %27 ], [ %72, %48 ]
  %76 = load i32, ptr %18, align 8
  %77 = add nsw i32 %76, 2
  br label %79

78:                                               ; preds = %13
  %.phi.trans.insert = getelementptr inbounds i8, ptr %0, i64 56
  %.pre38 = load i32, ptr %.phi.trans.insert, align 8
  br label %79

79:                                               ; preds = %78, %alloc_funny_pointers.exit
  %80 = phi i32 [ %75, %alloc_funny_pointers.exit ], [ %.pre38, %78 ]
  %.032 = phi i32 [ %77, %alloc_funny_pointers.exit ], [ %19, %78 ]
  %81 = getelementptr inbounds i8, ptr %0, i64 56
  %82 = icmp sgt i32 %80, 0
  br i1 %82, label %.lr.ph, label %._crit_edge

.lr.ph:                                           ; preds = %79
  %83 = getelementptr inbounds i8, ptr %0, i64 304
  %84 = load ptr, ptr %83, align 8
  %85 = getelementptr inbounds i8, ptr %0, i64 416
  %86 = getelementptr inbounds i8, ptr %6, i64 16
  br label %87

87:                                               ; preds = %.lr.ph, %87
  %indvars.iv = phi i64 [ 0, %.lr.ph ], [ %indvars.iv.next, %87 ]
  %.036 = phi ptr [ %84, %.lr.ph ], [ %104, %87 ]
  %88 = getelementptr inbounds i8, ptr %.036, i64 12
  %89 = load i32, ptr %88, align 4
  %90 = getelementptr inbounds i8, ptr %.036, i64 36
  %91 = load i32, ptr %90, align 4
  %92 = mul nsw i32 %91, %89
  %93 = load i32, ptr %85, align 8
  %94 = sdiv i32 %92, %93
  %95 = load ptr, ptr %3, align 8
  %96 = getelementptr inbounds i8, ptr %95, i64 16
  %97 = load ptr, ptr %96, align 8
  %98 = getelementptr inbounds i8, ptr %.036, i64 28
  %99 = load i32, ptr %98, align 4
  %100 = mul i32 %99, %91
  %101 = mul nsw i32 %94, %.032
  %102 = tail call ptr %97(ptr noundef nonnull %0, i32 noundef 1, i32 noundef %100, i32 noundef %101) #2
  %103 = getelementptr inbounds [10 x ptr], ptr %86, i64 0, i64 %indvars.iv
  store ptr %102, ptr %103, align 8
  %indvars.iv.next = add nuw nsw i64 %indvars.iv, 1
  %104 = getelementptr inbounds i8, ptr %.036, i64 96
  %105 = load i32, ptr %81, align 8
  %106 = sext i32 %105 to i64
  %107 = icmp slt i64 %indvars.iv.next, %106
  br i1 %107, label %87, label %._crit_edge, !llvm.loop !8

._crit_edge:                                      ; preds = %87, %79
  ret void
}